target datalayout = "e-m:e-p270:32:32-p271:32:32-p272:64:64-i64:64-i128:128-f80:128-n8:16:32:64-S128"
target triple = "x86_64-pc-linux-gnu"

; Function Attrs: nounwind uwtable
define ptr @Gia_ManBalance(ptr noundef %0, i32 noundef %1, i32 noundef %2, i32 noundef %3) #0 {
  %5 = alloca ptr, align 8
  %6 = alloca i32, align 4
  %7 = alloca i32, align 4
  %8 = alloca i32, align 4
  %9 = alloca ptr, align 8
  %10 = alloca ptr, align 8
  %11 = alloca ptr, align 8
  store ptr %0, ptr %5, align 8, !tbaa !19
  store i32 %1, ptr %6, align 4, !tbaa !8
  store i32 %2, ptr %7, align 4, !tbaa !8
  store i32 %3, ptr %8, align 4, !tbaa !8
  call void @llvm.lifetime.start.p0(i64 8, ptr %9) #13
  call void @llvm.lifetime.start.p0(i64 8, ptr %10) #13
  call void @llvm.lifetime.start.p0(i64 8, ptr %11) #13
  %12 = load i32, ptr %8, align 4, !tbaa !8
  %13 = icmp ne i32 %12, 0
  br i1 %13, label %14, label %16

14:                                               ; preds = %4
  %15 = load ptr, ptr %5, align 8, !tbaa !19
  call void @Gia_ManPrintStats(ptr noundef %15, ptr noundef null)
  br label %16

16:                                               ; preds = %14, %4
  %17 = load i32, ptr %6, align 4, !tbaa !8
  %18 = icmp ne i32 %17, 0
  br i1 %18, label %19, label %22

19:                                               ; preds = %16
  %20 = load ptr, ptr %5, align 8, !tbaa !19
  %21 = call ptr @Gia_ManDup(ptr noundef %20)
  br label %25

22:                                               ; preds = %16
  %23 = load ptr, ptr %5, align 8, !tbaa !19
  %24 = call ptr @Gia_ManDupMuxes(ptr noundef %23, i32 noundef 2)
  br label %25

25:                                               ; preds = %22, %19
  %26 = phi ptr [ %21, %19 ], [ %24, %22 ]
  store ptr %26, ptr %9, align 8, !tbaa !19
  %27 = load ptr, ptr %9, align 8, !tbaa !19
  %28 = load ptr, ptr %5, align 8, !tbaa !19
  call void @Gia_ManTransferTiming(ptr noundef %27, ptr noundef %28)
  %29 = load i32, ptr %8, align 4, !tbaa !8
  %30 = icmp ne i32 %29, 0
  br i1 %30, label %31, label %33

31:                                               ; preds = %25
  %32 = load ptr, ptr %9, align 8, !tbaa !19
  call void @Gia_ManPrintStats(ptr noundef %32, ptr noundef null)
  br label %33

33:                                               ; preds = %31, %25
  %34 = load ptr, ptr %9, align 8, !tbaa !19
  %35 = load i32, ptr %7, align 4, !tbaa !8
  %36 = call ptr @Gia_ManBalanceInt(ptr noundef %34, i32 noundef %35)
  store ptr %36, ptr %10, align 8, !tbaa !19
  %37 = load ptr, ptr %10, align 8, !tbaa !19
  %38 = load ptr, ptr %9, align 8, !tbaa !19
  call void @Gia_ManTransferTiming(ptr noundef %37, ptr noundef %38)
  %39 = load i32, ptr %8, align 4, !tbaa !8
  %40 = icmp ne i32 %39, 0
  br i1 %40, label %41, label %43

41:                                               ; preds = %33
  %42 = load ptr, ptr %10, align 8, !tbaa !19
  call void @Gia_ManPrintStats(ptr noundef %42, ptr noundef null)
  br label %43

43:                                               ; preds = %41, %33
  %44 = load ptr, ptr %9, align 8, !tbaa !19
  call void @Gia_ManStop(ptr noundef %44)
  %45 = load ptr, ptr %10, align 8, !tbaa !19
  %46 = call ptr @Gia_ManDupNoMuxes(ptr noundef %45, i32 noundef 0)
  store ptr %46, ptr %11, align 8, !tbaa !19
  %47 = load ptr, ptr %11, align 8, !tbaa !19
  %48 = load ptr, ptr %10, align 8, !tbaa !19
  call void @Gia_ManTransferTiming(ptr noundef %47, ptr noundef %48)
  %49 = load i32, ptr %8, align 4, !tbaa !8
  %50 = icmp ne i32 %49, 0
  br i1 %50, label %51, label %53

51:                                               ; preds = %43
  %52 = load ptr, ptr %11, align 8, !tbaa !19
  call void @Gia_ManPrintStats(ptr noundef %52, ptr noundef null)
  br label %53

53:                                               ; preds = %51, %43
  %54 = load ptr, ptr %10, align 8, !tbaa !19
  call void @Gia_ManStop(ptr noundef %54)
  %55 = load ptr, ptr %11, align 8, !tbaa !19
  call void @llvm.lifetime.end.p0(i64 8, ptr %11) #13
  call void @llvm.lifetime.end.p0(i64 8, ptr %10) #13
  call void @llvm.lifetime.end.p0(i64 8, ptr %9) #13
  ret ptr %55
}