; Function Attrs: nounwind uwtable
define noundef ptr @Gia_ManBalance(ptr noundef %0, i32 noundef %1, i32 noundef %2, i32 noundef %3) local_unnamed_addr #0 {
  %.not = icmp eq i32 %3, 0
  br i1 %.not, label %6, label %5

5:                                                ; preds = %4
  tail call void @Gia_ManPrintStats(ptr noundef %0, ptr noundef null) #27
  br label %6

6:                                                ; preds = %5, %4
  %.not22 = icmp eq i32 %1, 0
  br i1 %.not22, label %9, label %7

7:                                                ; preds = %6
  %8 = tail call ptr @Gia_ManDup(ptr noundef %0) #27
  br label %11

9:                                                ; preds = %6
  %10 = tail call ptr @Gia_ManDupMuxes(ptr noundef %0, i32 noundef 2) #27
  br label %11

11:                                               ; preds = %9, %7
  %12 = phi ptr [ %8, %7 ], [ %10, %9 ]
  tail call void @Gia_ManTransferTiming(ptr noundef %12, ptr noundef %0) #27
  br i1 %.not, label %14, label %13

13:                                               ; preds = %11
  tail call void @Gia_ManPrintStats(ptr noundef %12, ptr noundef null) #27
  br label %14

14:                                               ; preds = %13, %11
  %15 = tail call ptr @Gia_ManBalanceInt(ptr noundef %12, i32 noundef %2)
  tail call void @Gia_ManTransferTiming(ptr noundef %15, ptr noundef %12) #27
  br i1 %.not, label %17, label %16

16:                                               ; preds = %14
  tail call void @Gia_ManPrintStats(ptr noundef %15, ptr noundef null) #27
  br label %17

17:                                               ; preds = %16, %14
  tail call void @Gia_ManStop(ptr noundef %12) #27
  %18 = tail call ptr @Gia_ManDupNoMuxes(ptr noundef %15, i32 noundef 0) #27
  tail call void @Gia_ManTransferTiming(ptr noundef %18, ptr noundef %15) #27
  br i1 %.not, label %20, label %19

19:                                               ; preds = %17
  tail call void @Gia_ManPrintStats(ptr noundef %18, ptr noundef null) #27
  br label %20

20:                                               ; preds = %19, %17
  tail call void @Gia_ManStop(ptr noundef %15) #27
  ret ptr %18
}